Certificate:
    Data:
        Version: 3 (0x2)
        Serial Number:
            57:36:06:e7:ba:d7:a3:80:71:61:b8:50:12:de:ef:45
    Signature Algorithm: sha256WithRSAEncryption
        Issuer: CN=rasvpn
        Validity
            Not Before: Mar 21 08:37:22 2020 GMT
            Not After : Mar  6 08:37:22 2023 GMT
        Subject: CN=client
        Subject Public Key Info:
            Public Key Algorithm: rsaEncryption
                Public-Key: (2048 bit)
                Modulus:
                    00:ac:c3:d5:48:ea:70:c9:5b:a5:b2:1d:c0:ac:97:
                    87:90:c4:8e:38:e4:03:c2:d0:8e:23:cc:3a:0a:16:
                    66:b1:67:fe:63:c6:00:0d:33:0a:56:19:61:8e:0f:
                    a8:1e:db:5c:93:58:95:05:ba:95:f6:79:24:a1:34:
                    12:db:6d:4a:c9:5e:21:58:cc:23:c9:e3:0e:f6:07:
                    8a:20:8b:b8:1e:75:64:a0:26:c9:07:54:ea:82:04:
                    58:33:bf:5c:7b:2b:15:cf:29:d1:b8:60:fe:3f:dc:
                    6d:55:22:11:14:39:6f:a0:f9:b2:16:f8:02:fc:ab:
                    f1:59:bd:8e:55:44:ca:a6:ba:d2:5a:99:57:63:a4:
                    d5:4a:a1:98:08:5c:2c:f4:1f:01:89:c2:41:e5:9a:
                    5e:04:b7:41:b8:20:c6:9e:78:bd:46:d2:f8:b3:24:
                    7d:43:6f:25:4e:c7:54:25:b8:90:62:51:cc:27:e9:
                    44:7c:ef:29:3a:d1:42:10:cb:ef:68:25:e0:24:ea:
                    88:fd:48:76:f9:6e:64:2f:e2:d3:ec:0d:b3:cf:39:
                    ac:e7:e4:db:8c:aa:f7:93:b8:8d:35:37:9b:cd:06:
                    81:2e:80:a3:31:cf:cf:c3:10:25:62:c2:bb:89:9e:
                    4a:98:9b:ad:cd:78:81:cc:58:d3:24:67:4d:37:d3:
                    63:f1
                Exponent: 65537 (0x10001)
        X509v3 extensions:
            X509v3 Basic Constraints: 
                CA:FALSE
            X509v3 Subject Key Identifier: 
                0C:CF:BE:69:13:E1:28:48:11:7A:F8:35:5F:11:A5:95:8E:2F:7D:D1
            X509v3 Authority Key Identifier: 
                keyid:22:B0:32:6E:0A:EB:5B:26:72:F0:D2:5C:35:B2:A4:0D:87:DF:99:46
                DirName:/CN=rasvpn
                serial:90:28:42:A5:DB:46:66:C3

            X509v3 Extended Key Usage: 
                TLS Web Client Authentication
            X509v3 Key Usage: 
                Digital Signature
    Signature Algorithm: sha256WithRSAEncryption
         72:bb:27:fe:5f:02:1e:82:d2:c9:0e:ad:b9:97:56:70:25:8f:
         61:0c:11:10:8b:f2:46:4e:24:7d:1d:f2:af:0d:ff:08:b3:64:
         e5:d0:b4:2c:59:18:e4:bd:d4:87:fc:c0:8d:84:d9:0c:96:a6:
         84:d4:bf:53:bf:e0:78:40:e6:f7:d3:67:28:7d:f3:b0:9e:9a:
         2f:64:87:3d:ce:4d:ee:67:87:53:62:3a:e5:fb:ea:bb:7e:c7:
         62:20:d3:e6:a1:1a:d8:35:8e:2c:b2:a0:42:16:54:3f:24:49:
         1b:a9:fd:8b:be:cb:ad:bb:d6:2c:19:61:9c:e9:d1:41:4d:b3:
         ad:59:61:59:73:96:f4:73:94:ea:5b:90:cf:1e:09:25:66:98:
         43:42:a7:06:b8:40:66:79:3e:80:8a:d1:70:18:ca:34:c1:59:
         78:f7:1f:ff:70:62:99:71:44:0e:9f:e7:be:6a:f1:b3:69:8d:
         a7:93:cd:7f:63:e8:72:dc:49:6b:19:7f:f0:7b:09:db:8a:81:
         5d:18:c8:9a:a0:a6:bb:d0:af:50:c9:6a:42:25:56:c6:51:0c:
         fb:b0:70:7f:99:1c:13:46:13:1f:68:5e:e8:8d:c2:04:b9:17:
         0c:b2:cf:2e:7d:18:6e:ca:a3:61:62:88:58:d1:00:79:f4:8c:
         f3:10:03:0d
-----BEGIN CERTIFICATE-----
MIIDPzCCAiegAwIBAgIQVzYG57rXo4BxYbhQEt7vRTANBgkqhkiG9w0BAQsFADAR
MQ8wDQYDVQQDDAZyYXN2cG4wHhcNMjAwMzIxMDgzNzIyWhcNMjMwMzA2MDgzNzIy
WjARMQ8wDQYDVQQDDAZjbGllbnQwggEiMA0GCSqGSIb3DQEBAQUAA4IBDwAwggEK
AoIBAQCsw9VI6nDJW6WyHcCsl4eQxI445APC0I4jzDoKFmaxZ/5jxgANMwpWGWGO
D6ge21yTWJUFupX2eSShNBLbbUrJXiFYzCPJ4w72B4ogi7gedWSgJskHVOqCBFgz
v1x7KxXPKdG4YP4/3G1VIhEUOW+g+bIW+AL8q/FZvY5VRMqmutJamVdjpNVKoZgI
XCz0HwGJwkHlml4Et0G4IMaeeL1G0vizJH1DbyVOx1QluJBiUcwn6UR87yk60UIQ
y+9oJeAk6oj9SHb5bmQv4tPsDbPPOazn5NuMqveTuI01N5vNBoEugKMxz8/DECVi
wruJnkqYm63NeIHMWNMkZ00302PxAgMBAAGjgZIwgY8wCQYDVR0TBAIwADAdBgNV
HQ4EFgQUDM++aRPhKEgRevg1XxGllY4vfdEwQQYDVR0jBDowOIAUIrAybgrrWyZy
8NJcNbKkDYffmUahFaQTMBExDzANBgNVBAMMBnJhc3ZwboIJAJAoQqXbRmbDMBMG
A1UdJQQMMAoGCCsGAQUFBwMCMAsGA1UdDwQEAwIHgDANBgkqhkiG9w0BAQsFAAOC
AQEAcrsn/l8CHoLSyQ6tuZdWcCWPYQwREIvyRk4kfR3yrw3/CLNk5dC0LFkY5L3U
h/zAjYTZDJamhNS/U7/geEDm99NnKH3zsJ6aL2SHPc5N7meHU2I65fvqu37HYiDT
5qEa2DWOLLKgQhZUPyRJG6n9i77LrbvWLBlhnOnRQU2zrVlhWXOW9HOU6luQzx4J
JWaYQ0KnBrhAZnk+gIrRcBjKNMFZePcf/3BimXFEDp/nvmrxs2mNp5PNf2PoctxJ
axl/8HsJ24qBXRjImqCmu9CvUMlqQiVWxlEM+7Bwf5kcE0YTH2he6I3CBLkXDLLP
Ln0YbsqjYWKIWNEAefSM8xADDQ==
-----END CERTIFICATE-----
