Certificate:
    Data:
        Version: 3 (0x2)
        Serial Number:
            59:22:65:58:c6:e5:82:c5:15:ed:28:2d:de:7a:35:f8
    Signature Algorithm: sha256WithRSAEncryption
        Issuer: CN=rasvpn
        Validity
            Not Before: Mar 21 08:19:13 2020 GMT
            Not After : Mar  6 08:19:13 2023 GMT
        Subject: CN=rasvpn
        Subject Public Key Info:
            Public Key Algorithm: rsaEncryption
                Public-Key: (2048 bit)
                Modulus:
                    00:ad:83:55:ef:8d:10:d2:ca:c9:6f:2d:cd:a8:e7:
                    d2:fe:28:fd:85:1f:63:58:0a:75:13:50:f7:1b:2b:
                    3b:d1:63:43:a3:fa:8a:fe:d3:a5:f3:76:c6:03:ec:
                    68:3a:8b:63:5f:f4:b4:39:17:04:30:76:da:9a:00:
                    ee:58:50:15:d0:0c:b5:c6:cc:e7:0d:e5:21:bf:e0:
                    8b:b8:48:4b:6e:6d:42:6e:e4:30:e0:03:c9:27:d4:
                    7a:70:0b:88:92:60:79:c6:f0:41:e5:3c:e3:ec:db:
                    97:81:75:72:77:1c:a5:14:90:af:c9:d8:4a:14:c7:
                    e0:4c:d3:6c:2d:e1:f2:ff:fd:d1:0d:d3:7a:cd:5c:
                    e3:1b:da:5e:6c:dc:2e:5f:b6:72:62:9d:e3:b5:de:
                    93:ad:3b:f6:9d:69:8d:b8:b8:17:f3:41:ee:61:7b:
                    1f:70:ea:2f:97:82:3a:b9:68:1d:67:f5:95:f3:c1:
                    02:8d:34:8a:66:cf:e9:c5:1f:c7:35:44:9f:47:dc:
                    99:67:35:6c:6e:16:93:d5:93:0a:df:73:97:a8:ee:
                    a3:2c:e8:3e:6d:e9:9c:6f:f8:f8:96:72:f5:72:f8:
                    8b:a0:7a:0f:f9:1b:9b:a2:62:16:11:99:13:fc:a3:
                    d0:ae:d9:b5:db:68:a5:97:af:f8:43:f7:3b:3d:d4:
                    03:35
                Exponent: 65537 (0x10001)
        X509v3 extensions:
            X509v3 Basic Constraints: 
                CA:FALSE
            X509v3 Subject Key Identifier: 
                7A:59:38:8F:44:2A:18:EB:09:B4:B5:12:29:A2:A4:60:B4:A5:34:36
            X509v3 Authority Key Identifier: 
                keyid:22:B0:32:6E:0A:EB:5B:26:72:F0:D2:5C:35:B2:A4:0D:87:DF:99:46
                DirName:/CN=rasvpn
                serial:90:28:42:A5:DB:46:66:C3

            X509v3 Extended Key Usage: 
                TLS Web Server Authentication
            X509v3 Key Usage: 
                Digital Signature, Key Encipherment
            X509v3 Subject Alternative Name: 
                DNS:rasvpn
    Signature Algorithm: sha256WithRSAEncryption
         0b:e0:a5:ce:bb:80:c4:e5:5f:fe:e4:13:32:fc:23:f8:bf:e5:
         cf:35:fa:00:64:b0:0e:be:c9:df:60:b0:dc:c9:b2:11:f3:ee:
         f7:6d:11:74:a3:61:5f:a7:85:fb:18:11:83:39:ff:63:3d:79:
         b0:9c:58:0c:4d:f5:0c:e9:a1:45:08:f1:f6:e4:e8:d5:3b:61:
         36:6d:4d:41:e2:f6:71:34:4c:a1:89:73:da:57:4f:76:3f:00:
         db:5e:de:9f:e7:c2:2f:7b:bc:42:21:1b:0b:c3:f3:0a:80:9a:
         ab:96:7b:36:c5:cf:47:24:a5:d8:db:e4:ff:55:66:bd:ed:09:
         47:c0:6d:9f:7b:f0:2e:a1:43:6e:de:32:a2:38:b4:9a:d4:25:
         26:7f:80:af:3d:70:9c:a1:ed:60:a9:b4:08:28:79:63:bf:2a:
         79:bb:bf:53:8b:1b:af:b9:9e:6d:7c:08:f4:79:8e:0f:41:be:
         25:d1:5d:75:98:80:12:81:6c:29:ab:45:a5:5c:a6:e3:46:73:
         9a:05:5d:ba:da:d5:da:ba:50:c4:72:0c:98:68:d0:b8:f4:34:
         02:e8:3b:83:34:4c:86:60:45:b5:fa:67:88:ea:6f:01:73:b2:
         7c:cf:38:4d:0b:27:f7:27:a1:64:75:67:7b:ff:0e:86:b2:d4:
         a8:dd:ec:52
-----BEGIN CERTIFICATE-----
MIIDUjCCAjqgAwIBAgIQWSJlWMblgsUV7Sgt3no1+DANBgkqhkiG9w0BAQsFADAR
MQ8wDQYDVQQDDAZyYXN2cG4wHhcNMjAwMzIxMDgxOTEzWhcNMjMwMzA2MDgxOTEz
WjARMQ8wDQYDVQQDDAZyYXN2cG4wggEiMA0GCSqGSIb3DQEBAQUAA4IBDwAwggEK
AoIBAQCtg1XvjRDSyslvLc2o59L+KP2FH2NYCnUTUPcbKzvRY0Oj+or+06XzdsYD
7Gg6i2Nf9LQ5FwQwdtqaAO5YUBXQDLXGzOcN5SG/4Iu4SEtubUJu5DDgA8kn1Hpw
C4iSYHnG8EHlPOPs25eBdXJ3HKUUkK/J2EoUx+BM02wt4fL//dEN03rNXOMb2l5s
3C5ftnJineO13pOtO/adaY24uBfzQe5hex9w6i+Xgjq5aB1n9ZXzwQKNNIpmz+nF
H8c1RJ9H3JlnNWxuFpPVkwrfc5eo7qMs6D5t6Zxv+PiWcvVy+Iugeg/5G5uiYhYR
mRP8o9Cu2bXbaKWXr/hD9zs91AM1AgMBAAGjgaUwgaIwCQYDVR0TBAIwADAdBgNV
HQ4EFgQUelk4j0QqGOsJtLUSKaKkYLSlNDYwQQYDVR0jBDowOIAUIrAybgrrWyZy
8NJcNbKkDYffmUahFaQTMBExDzANBgNVBAMMBnJhc3ZwboIJAJAoQqXbRmbDMBMG
A1UdJQQMMAoGCCsGAQUFBwMBMAsGA1UdDwQEAwIFoDARBgNVHREECjAIggZyYXN2
cG4wDQYJKoZIhvcNAQELBQADggEBAAvgpc67gMTlX/7kEzL8I/i/5c81+gBksA6+
yd9gsNzJshHz7vdtEXSjYV+nhfsYEYM5/2M9ebCcWAxN9QzpoUUI8fbk6NU7YTZt
TUHi9nE0TKGJc9pXT3Y/ANte3p/nwi97vEIhGwvD8wqAmquWezbFz0ckpdjb5P9V
Zr3tCUfAbZ978C6hQ27eMqI4tJrUJSZ/gK89cJyh7WCptAgoeWO/Knm7v1OLG6+5
nm18CPR5jg9BviXRXXWYgBKBbCmrRaVcpuNGc5oFXbra1dq6UMRyDJho0Lj0NALo
O4M0TIZgRbX6Z4jqbwFzsnzPOE0LJ/cnoWR1Z3v/Doay1Kjd7FI=
-----END CERTIFICATE-----
